; Function Attrs: mustprogress nofree norecurse nosync nounwind willreturn memory(argmem: write) uwtable
define void @_ZN12t_forcetableC2E16TableInteraction11TableFormat(ptr nocapture noundef nonnull writeonly align 8 dereferenceable(56) %0, i32 noundef %1, i32 noundef %2) unnamed_addr #16 align 2 {
  store i32 %1, ptr %0, align 8
  %4 = getelementptr inbounds i8, ptr %0, i64 4
  store i32 %2, ptr %4, align 4
  %5 = getelementptr inbounds i8, ptr %0, i64 8
  store float 0.000000e+00, ptr %5, align 8
  %6 = getelementptr inbounds i8, ptr %0, i64 12
  store i32 0, ptr %6, align 4
  %7 = getelementptr inbounds i8, ptr %0, i64 16
  store float 0.000000e+00, ptr %7, align 8
  %8 = getelementptr inbounds i8, ptr %0, i64 24
  tail call void @llvm.memset.p0.i64(ptr noundef nonnull align 8 dereferenceable(32) %8, i8 0, i64 32, i1 false)
  ret void
}